target datalayout = "e-m:e-p270:32:32-p271:32:32-p272:64:64-i64:64-i128:128-f80:128-n8:16:32:64-S128"
target triple = "x86_64-pc-linux-gnu"

%struct.x509_st = type { %struct.x509_cinf_st, %struct.X509_algor_st, %struct.asn1_string_st, %struct.x509_sig_info_st, %struct.CRYPTO_REF_COUNT, %struct.crypto_ex_data_st, i64, i64, i32, i32, i32, i32, ptr, ptr, ptr, ptr, ptr, ptr, ptr, ptr, [20 x i8], ptr, ptr, i32, ptr, ptr, ptr }
%struct.x509_cinf_st = type { ptr, %struct.asn1_string_st, %struct.X509_algor_st, ptr, %struct.X509_val_st, ptr, ptr, ptr, ptr, ptr, %struct.ASN1_ENCODING_st }
%struct.X509_val_st = type { ptr, ptr }
%struct.ASN1_ENCODING_st = type { ptr, i64, i32 }
%struct.X509_algor_st = type { ptr, ptr }
%struct.asn1_string_st = type { i32, i32, ptr, i64 }
%struct.x509_sig_info_st = type { i32, i32, i32, i32 }
%struct.CRYPTO_REF_COUNT = type { i32 }
%struct.crypto_ex_data_st = type { ptr, ptr }
%struct.x509_cert_aux_st = type { ptr, ptr, ptr, ptr, ptr }

; Function Attrs: nounwind uwtable
define internal i32 @trust_compat(ptr noundef %0, ptr noundef %1, i32 noundef %2) #0 {
  %4 = alloca i32, align 4
  %5 = alloca ptr, align 8
  %6 = alloca ptr, align 8
  %7 = alloca i32, align 4
  store ptr %0, ptr %5, align 8, !tbaa !11
  store ptr %1, ptr %6, align 8, !tbaa !7
  store i32 %2, ptr %7, align 4, !tbaa !9
  %8 = load ptr, ptr %6, align 8, !tbaa !7
  %9 = call i32 @X509_check_purpose(ptr noundef %8, i32 noundef -1, i32 noundef 0)
  %10 = icmp ne i32 %9, 1
  br i1 %10, label %11, label %12

11:                                               ; preds = %3
  store i32 3, ptr %4, align 4
  br label %24

12:                                               ; preds = %3
  %13 = load i32, ptr %7, align 4, !tbaa !9
  %14 = and i32 %13, 4
  %15 = icmp eq i32 %14, 0
  br i1 %15, label %16, label %23

16:                                               ; preds = %12
  %17 = load ptr, ptr %6, align 8, !tbaa !7
  %18 = getelementptr inbounds nuw %struct.x509_st, ptr %17, i32 0, i32 8
  %19 = load i32, ptr %18, align 8, !tbaa !65
  %20 = and i32 %19, 8192
  %21 = icmp ne i32 %20, 0
  br i1 %21, label %22, label %23

22:                                               ; preds = %16
  store i32 1, ptr %4, align 4
  br label %24

23:                                               ; preds = %16, %12
  store i32 3, ptr %4, align 4
  br label %24

24:                                               ; preds = %23, %22, %11
  %25 = load i32, ptr %4, align 4
  ret i32 %25
}

; Function Attrs: inlinehint nounwind uwtable
define internal ptr @ossl_check_const_ASN1_OBJECT_sk_type(ptr noundef %0) #3 {
  %2 = alloca ptr, align 8
  store ptr %0, ptr %2, align 8, !tbaa !66
  %3 = load ptr, ptr %2, align 8, !tbaa !66
  ret ptr %3
}

; Function Attrs: nounwind uwtable
define internal i32 @obj_trust(i32 noundef %0, ptr noundef %1, i32 noundef %2) #0 {
  %4 = alloca i32, align 4
  %5 = alloca i32, align 4
  %6 = alloca ptr, align 8
  %7 = alloca i32, align 4
  %8 = alloca ptr, align 8
  %9 = alloca i32, align 4
  %10 = alloca ptr, align 8
  %11 = alloca i32, align 4
  %12 = alloca i32, align 4
  %13 = alloca ptr, align 8
  %14 = alloca i32, align 4
  store i32 %0, ptr %5, align 4, !tbaa !9
  store ptr %1, ptr %6, align 8, !tbaa !7
  store i32 %2, ptr %7, align 4, !tbaa !9
  call void @llvm.lifetime.start.p0(i64 8, ptr %8) #4
  %15 = load ptr, ptr %6, align 8, !tbaa !7
  %16 = getelementptr inbounds nuw %struct.x509_st, ptr %15, i32 0, i32 21
  %17 = load ptr, ptr %16, align 8, !tbaa !16
  store ptr %17, ptr %8, align 8, !tbaa !43
  call void @llvm.lifetime.start.p0(i64 4, ptr %9) #4
  %18 = load ptr, ptr %8, align 8, !tbaa !43
  %19 = icmp ne ptr %18, null
  br i1 %19, label %20, label %62

20:                                               ; preds = %3
  %21 = load ptr, ptr %8, align 8, !tbaa !43
  %22 = getelementptr inbounds nuw %struct.x509_cert_aux_st, ptr %21, i32 0, i32 1
  %23 = load ptr, ptr %22, align 8, !tbaa !44
  %24 = icmp ne ptr %23, null
  br i1 %24, label %25, label %62

25:                                               ; preds = %20
  store i32 0, ptr %9, align 4, !tbaa !9
  br label %26

26:                                               ; preds = %58, %25
  %27 = load i32, ptr %9, align 4, !tbaa !9
  %28 = load ptr, ptr %8, align 8, !tbaa !43
  %29 = getelementptr inbounds nuw %struct.x509_cert_aux_st, ptr %28, i32 0, i32 1
  %30 = load ptr, ptr %29, align 8, !tbaa !44
  %31 = call ptr @ossl_check_const_ASN1_OBJECT_sk_type(ptr noundef %30)
  %32 = call i32 @OPENSSL_sk_num(ptr noundef %31)
  %33 = icmp slt i32 %27, %32
  br i1 %33, label %34, label %61

34:                                               ; preds = %26
  call void @llvm.lifetime.start.p0(i64 8, ptr %10) #4
  %35 = load ptr, ptr %8, align 8, !tbaa !43
  %36 = getelementptr inbounds nuw %struct.x509_cert_aux_st, ptr %35, i32 0, i32 1
  %37 = load ptr, ptr %36, align 8, !tbaa !44
  %38 = call ptr @ossl_check_const_ASN1_OBJECT_sk_type(ptr noundef %37)
  %39 = load i32, ptr %9, align 4, !tbaa !9
  %40 = call ptr @OPENSSL_sk_value(ptr noundef %38, i32 noundef %39)
  store ptr %40, ptr %10, align 8, !tbaa !48
  call void @llvm.lifetime.start.p0(i64 4, ptr %11) #4
  %41 = load ptr, ptr %10, align 8, !tbaa !48
  %42 = call i32 @OBJ_obj2nid(ptr noundef %41)
  store i32 %42, ptr %11, align 4, !tbaa !9
  %43 = load i32, ptr %11, align 4, !tbaa !9
  %44 = load i32, ptr %5, align 4, !tbaa !9
  %45 = icmp eq i32 %43, %44
  br i1 %45, label %53, label %46

46:                                               ; preds = %34
  %47 = load i32, ptr %11, align 4, !tbaa !9
  %48 = icmp eq i32 %47, 910
  br i1 %48, label %49, label %54

49:                                               ; preds = %46
  %50 = load i32, ptr %7, align 4, !tbaa !9
  %51 = and i32 %50, 16
  %52 = icmp ne i32 %51, 0
  br i1 %52, label %53, label %54

53:                                               ; preds = %49, %34
  store i32 2, ptr %4, align 4
  store i32 1, ptr %12, align 4
  br label %55

54:                                               ; preds = %49, %46
  store i32 0, ptr %12, align 4
  br label %55

55:                                               ; preds = %54, %53
  call void @llvm.lifetime.end.p0(i64 4, ptr %11) #4
  call void @llvm.lifetime.end.p0(i64 8, ptr %10) #4
  %56 = load i32, ptr %12, align 4
  switch i32 %56, label %116 [
    i32 0, label %57
  ]

57:                                               ; preds = %55
  br label %58

58:                                               ; preds = %57
  %59 = load i32, ptr %9, align 4, !tbaa !9
  %60 = add nsw i32 %59, 1
  store i32 %60, ptr %9, align 4, !tbaa !9
  br label %26, !llvm.loop !49

61:                                               ; preds = %26
  br label %62

62:                                               ; preds = %61, %20, %3
  %63 = load ptr, ptr %8, align 8, !tbaa !43
  %64 = icmp ne ptr %63, null
  br i1 %64, label %65, label %107

65:                                               ; preds = %62
  %66 = load ptr, ptr %8, align 8, !tbaa !43
  %67 = getelementptr inbounds nuw %struct.x509_cert_aux_st, ptr %66, i32 0, i32 0
  %68 = load ptr, ptr %67, align 8, !tbaa !51
  %69 = icmp ne ptr %68, null
  br i1 %69, label %70, label %107

70:                                               ; preds = %65
  store i32 0, ptr %9, align 4, !tbaa !9
  br label %71

71:                                               ; preds = %103, %70
  %72 = load i32, ptr %9, align 4, !tbaa !9
  %73 = load ptr, ptr %8, align 8, !tbaa !43
  %74 = getelementptr inbounds nuw %struct.x509_cert_aux_st, ptr %73, i32 0, i32 0
  %75 = load ptr, ptr %74, align 8, !tbaa !51
  %76 = call ptr @ossl_check_const_ASN1_OBJECT_sk_type(ptr noundef %75)
  %77 = call i32 @OPENSSL_sk_num(ptr noundef %76)
  %78 = icmp slt i32 %72, %77
  br i1 %78, label %79, label %106

79:                                               ; preds = %71
  call void @llvm.lifetime.start.p0(i64 8, ptr %13) #4
  %80 = load ptr, ptr %8, align 8, !tbaa !43
  %81 = getelementptr inbounds nuw %struct.x509_cert_aux_st, ptr %80, i32 0, i32 0
  %82 = load ptr, ptr %81, align 8, !tbaa !51
  %83 = call ptr @ossl_check_const_ASN1_OBJECT_sk_type(ptr noundef %82)
  %84 = load i32, ptr %9, align 4, !tbaa !9
  %85 = call ptr @OPENSSL_sk_value(ptr noundef %83, i32 noundef %84)
  store ptr %85, ptr %13, align 8, !tbaa !48
  call void @llvm.lifetime.start.p0(i64 4, ptr %14) #4
  %86 = load ptr, ptr %13, align 8, !tbaa !48
  %87 = call i32 @OBJ_obj2nid(ptr noundef %86)
  store i32 %87, ptr %14, align 4, !tbaa !9
  %88 = load i32, ptr %14, align 4, !tbaa !9
  %89 = load i32, ptr %5, align 4, !tbaa !9
  %90 = icmp eq i32 %88, %89
  br i1 %90, label %98, label %91

91:                                               ; preds = %79
  %92 = load i32, ptr %14, align 4, !tbaa !9
  %93 = icmp eq i32 %92, 910
  br i1 %93, label %94, label %99

94:                                               ; preds = %91
  %95 = load i32, ptr %7, align 4, !tbaa !9
  %96 = and i32 %95, 16
  %97 = icmp ne i32 %96, 0
  br i1 %97, label %98, label %99

98:                                               ; preds = %94, %79
  store i32 1, ptr %4, align 4
  store i32 1, ptr %12, align 4
  br label %100

99:                                               ; preds = %94, %91
  store i32 0, ptr %12, align 4
  br label %100

100:                                              ; preds = %99, %98
  call void @llvm.lifetime.end.p0(i64 4, ptr %14) #4
  call void @llvm.lifetime.end.p0(i64 8, ptr %13) #4
  %101 = load i32, ptr %12, align 4
  switch i32 %101, label %116 [
    i32 0, label %102
  ]

102:                                              ; preds = %100
  br label %103

103:                                              ; preds = %102
  %104 = load i32, ptr %9, align 4, !tbaa !9
  %105 = add nsw i32 %104, 1
  store i32 %105, ptr %9, align 4, !tbaa !9
  br label %71, !llvm.loop !52

106:                                              ; preds = %71
  store i32 2, ptr %4, align 4
  store i32 1, ptr %12, align 4
  br label %116

107:                                              ; preds = %65, %62
  %108 = load i32, ptr %7, align 4, !tbaa !9
  %109 = and i32 %108, 8
  %110 = icmp eq i32 %109, 0
  br i1 %110, label %111, label %112

111:                                              ; preds = %107
  store i32 3, ptr %4, align 4
  store i32 1, ptr %12, align 4
  br label %116

112:                                              ; preds = %107
  %113 = load ptr, ptr %6, align 8, !tbaa !7
  %114 = load i32, ptr %7, align 4, !tbaa !9
  %115 = call i32 @trust_compat(ptr noundef null, ptr noundef %113, i32 noundef %114)
  store i32 %115, ptr %4, align 4
  store i32 1, ptr %12, align 4
  br label %116

116:                                              ; preds = %112, %111, %106, %100, %55
  call void @llvm.lifetime.end.p0(i64 4, ptr %9) #4
  call void @llvm.lifetime.end.p0(i64 8, ptr %8) #4
  %117 = load i32, ptr %4, align 4
  ret i32 %117
}