; Function Attrs: nounwind uwtable
define internal range(i32 1, 4) i32 @obj_trust(i32 noundef %0, ptr noundef %1, i32 noundef %2) #2 {
  %4 = getelementptr inbounds nuw i8, ptr %1, i64 336
  %5 = load ptr, ptr %4, align 8, !tbaa !14
  %.not = icmp eq ptr %5, null
  br i1 %.not, label %.critedge44, label %6

6:                                                ; preds = %3
  %7 = getelementptr inbounds nuw i8, ptr %5, i64 8
  %8 = load ptr, ptr %7, align 8, !tbaa !41
  %.not39 = icmp eq ptr %8, null
  br i1 %.not39, label %.loopexit, label %.preheader49

.preheader49:                                     ; preds = %6
  %9 = tail call i32 @OPENSSL_sk_num(ptr noundef nonnull %8) #6
  %10 = icmp sgt i32 %9, 0
  br i1 %10, label %.lr.ph, label %.loopexit

.lr.ph:                                           ; preds = %.preheader49
  %11 = and i32 %2, 16
  %.not42 = icmp eq i32 %11, 0
  br i1 %.not42, label %.lr.ph.split.us, label %.lr.ph.split

.lr.ph.split.us:                                  ; preds = %.lr.ph, %.critedge.us
  %.03151.us = phi i32 [ %16, %.critedge.us ], [ 0, %.lr.ph ]
  %12 = load ptr, ptr %7, align 8, !tbaa !41
  %13 = tail call ptr @OPENSSL_sk_value(ptr noundef %12, i32 noundef %.03151.us) #6
  %14 = tail call i32 @OBJ_obj2nid(ptr noundef %13) #6
  %15 = icmp eq i32 %14, %0
  br i1 %15, label %trust_compat.exit, label %.critedge.us

.critedge.us:                                     ; preds = %.lr.ph.split.us
  %16 = add nuw nsw i32 %.03151.us, 1
  %17 = load ptr, ptr %7, align 8, !tbaa !41
  %18 = tail call i32 @OPENSSL_sk_num(ptr noundef %17) #6
  %19 = icmp slt i32 %16, %18
  br i1 %19, label %.lr.ph.split.us, label %.loopexit, !llvm.loop !45

20:                                               ; preds = %.lr.ph.split
  %21 = add nuw nsw i32 %.03151, 1
  %22 = load ptr, ptr %7, align 8, !tbaa !41
  %23 = tail call i32 @OPENSSL_sk_num(ptr noundef %22) #6
  %24 = icmp slt i32 %21, %23
  br i1 %24, label %.lr.ph.split, label %.loopexit, !llvm.loop !45

.lr.ph.split:                                     ; preds = %.lr.ph, %20
  %.03151 = phi i32 [ %21, %20 ], [ 0, %.lr.ph ]
  %25 = load ptr, ptr %7, align 8, !tbaa !41
  %26 = tail call ptr @OPENSSL_sk_value(ptr noundef %25, i32 noundef %.03151) #6
  %27 = tail call i32 @OBJ_obj2nid(ptr noundef %26) #6
  %28 = icmp eq i32 %27, %0
  %.not59 = icmp eq i32 %27, 910
  %or.cond71 = or i1 %28, %.not59
  br i1 %or.cond71, label %trust_compat.exit, label %20

.loopexit:                                        ; preds = %20, %.critedge.us, %.preheader49, %6
  %29 = load ptr, ptr %5, align 8, !tbaa !47
  %.not40 = icmp eq ptr %29, null
  br i1 %.not40, label %.critedge44, label %.preheader

.preheader:                                       ; preds = %.loopexit
  %30 = tail call i32 @OPENSSL_sk_num(ptr noundef nonnull %29) #6
  %31 = icmp sgt i32 %30, 0
  br i1 %31, label %.lr.ph53, label %trust_compat.exit

.lr.ph53:                                         ; preds = %.preheader
  %32 = and i32 %2, 16
  %.not41 = icmp eq i32 %32, 0
  br i1 %.not41, label %.lr.ph53.split.us, label %.lr.ph53.split

.lr.ph53.split.us:                                ; preds = %.lr.ph53, %37
  %.13252.us = phi i32 [ %38, %37 ], [ 0, %.lr.ph53 ]
  %33 = load ptr, ptr %5, align 8, !tbaa !47
  %34 = tail call ptr @OPENSSL_sk_value(ptr noundef %33, i32 noundef %.13252.us) #6
  %35 = tail call i32 @OBJ_obj2nid(ptr noundef %34) #6
  %36 = icmp eq i32 %35, %0
  br i1 %36, label %trust_compat.exit, label %37

37:                                               ; preds = %.lr.ph53.split.us
  %38 = add nuw nsw i32 %.13252.us, 1
  %39 = load ptr, ptr %5, align 8, !tbaa !47
  %40 = tail call i32 @OPENSSL_sk_num(ptr noundef %39) #6
  %41 = icmp slt i32 %38, %40
  br i1 %41, label %.lr.ph53.split.us, label %trust_compat.exit, !llvm.loop !48

42:                                               ; preds = %.lr.ph53.split
  %43 = add nuw nsw i32 %.13252, 1
  %44 = load ptr, ptr %5, align 8, !tbaa !47
  %45 = tail call i32 @OPENSSL_sk_num(ptr noundef %44) #6
  %46 = icmp slt i32 %43, %45
  br i1 %46, label %.lr.ph53.split, label %trust_compat.exit, !llvm.loop !48

.lr.ph53.split:                                   ; preds = %.lr.ph53, %42
  %.13252 = phi i32 [ %43, %42 ], [ 0, %.lr.ph53 ]
  %47 = load ptr, ptr %5, align 8, !tbaa !47
  %48 = tail call ptr @OPENSSL_sk_value(ptr noundef %47, i32 noundef %.13252) #6
  %49 = tail call i32 @OBJ_obj2nid(ptr noundef %48) #6
  %50 = icmp eq i32 %49, %0
  %.not60 = icmp eq i32 %49, 910
  %or.cond = or i1 %50, %.not60
  br i1 %or.cond, label %trust_compat.exit, label %42

.critedge44:                                      ; preds = %3, %.loopexit
  %51 = and i32 %2, 8
  %52 = icmp eq i32 %51, 0
  br i1 %52, label %trust_compat.exit, label %53

53:                                               ; preds = %.critedge44
  %54 = tail call i32 @X509_check_purpose(ptr noundef %1, i32 noundef -1, i32 noundef 0) #6
  %.not.i = icmp eq i32 %54, 1
  br i1 %.not.i, label %55, label %trust_compat.exit

55:                                               ; preds = %53
  %56 = and i32 %2, 4
  %57 = icmp eq i32 %56, 0
  br i1 %57, label %58, label %62

58:                                               ; preds = %55
  %59 = getelementptr inbounds nuw i8, ptr %1, i64 232
  %60 = load i32, ptr %59, align 8, !tbaa !49
  %61 = and i32 %60, 8192
  %.not3.i = icmp eq i32 %61, 0
  br i1 %.not3.i, label %62, label %trust_compat.exit

62:                                               ; preds = %58, %55
  br label %trust_compat.exit

trust_compat.exit:                                ; preds = %.lr.ph.split, %.lr.ph.split.us, %42, %.lr.ph53.split, %37, %.lr.ph53.split.us, %.preheader, %62, %58, %53, %.critedge44
  %.3 = phi i32 [ 3, %.critedge44 ], [ 3, %62 ], [ 3, %53 ], [ 1, %58 ], [ 2, %.preheader ], [ 2, %37 ], [ 1, %.lr.ph53.split.us ], [ 2, %42 ], [ 1, %.lr.ph53.split ], [ 2, %.lr.ph.split.us ], [ 2, %.lr.ph.split ]
  ret i32 %.3
}